Certificate:
    Data:
        Version: 3 (0x2)
        Serial Number: 172 (0xac)
    Signature Algorithm: sha1WithRSAEncryption
        Issuer: C=RU, ST=IRK, L=BRATSK, O=integracya.com, CN=integracya.com CA/emailAddress=hemoy1992@gmail.com
        Validity
            Not Before: Nov 20 13:23:33 2016 GMT
            Not After : Nov 18 13:23:33 2026 GMT
        Subject: C=RU, ST=IRK, L=BRATSK, O=integracya.com, CN=pi-rso-pc/emailAddress=hemoy1992@gmail.com
        Subject Public Key Info:
            Public Key Algorithm: rsaEncryption
                Public-Key: (1024 bit)
                Modulus:
                    00:da:25:42:13:23:48:99:b5:4d:b1:4b:14:4b:c4:
                    b3:46:7b:8a:5b:4f:6b:d2:6d:57:d7:36:42:68:d0:
                    34:bb:dd:56:ff:0d:cd:22:46:c7:d7:6b:b3:14:cb:
                    67:73:17:39:9a:f5:83:3a:91:5f:68:ec:46:8a:d9:
                    2d:3d:18:41:91:ce:bd:6a:0e:e7:c6:a1:8e:9d:76:
                    8b:99:de:53:40:ab:98:df:28:86:05:64:bd:06:fa:
                    04:6f:97:2e:e1:5f:c0:ec:9f:51:3e:5a:6d:3f:eb:
                    47:07:0d:24:08:00:d6:5e:a1:4e:eb:eb:0f:17:f1:
                    0b:bd:5d:71:81:39:0c:65:47
                Exponent: 65537 (0x10001)
        X509v3 extensions:
            X509v3 Basic Constraints: 
                CA:FALSE
            Netscape Comment: 
                Easy-RSA Generated Certificate
            X509v3 Subject Key Identifier: 
                34:C0:34:9B:86:71:29:07:01:03:B4:F6:67:1F:E0:B7:2A:C1:DB:C9
            X509v3 Authority Key Identifier: 
                keyid:5B:F6:A5:41:0E:D1:57:03:37:18:22:D4:65:D4:F8:01:46:89:AC:6C
                DirName:/C=RU/ST=IRK/L=BRATSK/O=integracya.com/CN=integracya.com CA/emailAddress=hemoy1992@gmail.com
                serial:A5:1C:94:48:8B:EA:FC:48

            X509v3 Extended Key Usage: 
                TLS Web Client Authentication
            X509v3 Key Usage: 
                Digital Signature
    Signature Algorithm: sha1WithRSAEncryption
         73:14:b1:bd:db:6a:e7:66:ce:5b:c4:69:da:00:80:c4:86:5f:
         c5:df:5f:75:86:bb:20:1e:34:14:a8:91:45:9d:da:2f:5f:a7:
         20:e5:66:5f:ac:ed:d1:06:80:ed:5d:bf:37:9f:57:68:a9:2c:
         3c:38:0d:93:de:54:5a:8b:e1:40:e1:94:34:2e:6b:46:c2:e3:
         54:01:92:65:f2:4f:2c:b9:67:34:9c:ee:da:47:d8:bd:1f:6f:
         d0:f2:b5:e4:a0:d5:f8:4d:39:f9:97:29:e1:a3:41:57:5e:cb:
         1f:89:20:a7:0f:c3:c3:22:f2:3f:22:c5:ba:68:c5:93:76:a0:
         40:0a
-----BEGIN CERTIFICATE-----
MIIDuDCCAyGgAwIBAgICAKwwDQYJKoZIhvcNAQEFBQAwgYUxCzAJBgNVBAYTAlJV
MQwwCgYDVQQIEwNJUksxDzANBgNVBAcTBkJSQVRTSzEXMBUGA1UEChMOaW50ZWdy
YWN5YS5jb20xGjAYBgNVBAMTEWludGVncmFjeWEuY29tIENBMSIwIAYJKoZIhvcN
AQkBFhNoZW1veTE5OTJAZ21haWwuY29tMB4XDTE2MTEyMDEzMjMzM1oXDTI2MTEx
ODEzMjMzM1owfTELMAkGA1UEBhMCUlUxDDAKBgNVBAgTA0lSSzEPMA0GA1UEBxMG
QlJBVFNLMRcwFQYDVQQKEw5pbnRlZ3JhY3lhLmNvbTESMBAGA1UEAxMJcGktcnNv
LXBjMSIwIAYJKoZIhvcNAQkBFhNoZW1veTE5OTJAZ21haWwuY29tMIGfMA0GCSqG
SIb3DQEBAQUAA4GNADCBiQKBgQDaJUITI0iZtU2xSxRLxLNGe4pbT2vSbVfXNkJo
0DS73Vb/Dc0iRsfXa7MUy2dzFzma9YM6kV9o7EaK2S09GEGRzr1qDufGoY6ddouZ
3lNAq5jfKIYFZL0G+gRvly7hX8Dsn1E+Wm0/60cHDSQIANZeoU7r6w8X8Qu9XXGB
OQxlRwIDAQABo4IBPDCCATgwCQYDVR0TBAIwADAtBglghkgBhvhCAQ0EIBYeRWFz
eS1SU0EgR2VuZXJhdGVkIENlcnRpZmljYXRlMB0GA1UdDgQWBBQ0wDSbhnEpBwED
tPZnH+C3KsHbyTCBugYDVR0jBIGyMIGvgBRb9qVBDtFXAzcYItRl1PgBRomsbKGB
i6SBiDCBhTELMAkGA1UEBhMCUlUxDDAKBgNVBAgTA0lSSzEPMA0GA1UEBxMGQlJB
VFNLMRcwFQYDVQQKEw5pbnRlZ3JhY3lhLmNvbTEaMBgGA1UEAxMRaW50ZWdyYWN5
YS5jb20gQ0ExIjAgBgkqhkiG9w0BCQEWE2hlbW95MTk5MkBnbWFpbC5jb22CCQCl
HJRIi+r8SDATBgNVHSUEDDAKBggrBgEFBQcDAjALBgNVHQ8EBAMCB4AwDQYJKoZI
hvcNAQEFBQADgYEAcxSxvdtq52bOW8Rp2gCAxIZfxd9fdYa7IB40FKiRRZ3aL1+n
IOVmX6zt0QaA7V2/N59XaKksPDgNk95UWovhQOGUNC5rRsLjVAGSZfJPLLlnNJzu
2kfYvR9v0PK15KDV+E05+Zcp4aNBV17LH4kgpw/DwyLyPyLFumjFk3agQAo=
-----END CERTIFICATE-----
